target datalayout = "e-m:e-p270:32:32-p271:32:32-p272:64:64-i64:64-i128:128-f80:128-n8:16:32:64-S128"
target triple = "x86_64-pc-linux-gnu"

@__const._ZN7glslang14TParseVersions14int8ArithmeticEv.extensions = private unnamed_addr constant [2 x ptr] [ptr @.str.174, ptr @.str.175], align 16

; Function Attrs: mustprogress nounwind uwtable
define noundef zeroext i1 @_ZN7glslang14TParseVersions14int8ArithmeticEv(ptr noundef nonnull align 8 dereferenceable(224) %0) unnamed_addr #0 align 2 {
  %2 = alloca ptr, align 8
  %3 = alloca [2 x ptr], align 16
  store ptr %0, ptr %2, align 8
  %4 = load ptr, ptr %2, align 8
  call void @llvm.memcpy.p0.p0.i64(ptr align 16 %3, ptr align 16 @__const._ZN7glslang14TParseVersions14int8ArithmeticEv.extensions, i64 16, i1 false)
  %5 = getelementptr inbounds [2 x ptr], ptr %3, i64 0, i64 0
  %6 = load ptr, ptr %4, align 8
  %7 = getelementptr inbounds ptr, ptr %6, i64 9
  %8 = load ptr, ptr %7, align 8
  %9 = call noundef zeroext i1 %8(ptr noundef nonnull align 8 dereferenceable(224) %4, i32 noundef 2, ptr noundef %5)
  ret i1 %9
}