; Function Attrs: mustprogress nounwind uwtable
define noundef zeroext i1 @_ZN7glslang14TParseVersions14int8ArithmeticEv(ptr noundef nonnull align 8 dereferenceable(224) %0) unnamed_addr #0 align 2 {
  %2 = alloca [2 x ptr], align 16
  call void @llvm.memcpy.p0.p0.i64(ptr noundef nonnull align 16 dereferenceable(16) %2, ptr noundef nonnull align 16 dereferenceable(16) @__const._ZN7glslang14TParseVersions17explicitInt8CheckERKNS_10TSourceLocEPKcb.extensions, i64 16, i1 false)
  %3 = load ptr, ptr %0, align 8
  %4 = getelementptr inbounds i8, ptr %3, i64 72
  %5 = load ptr, ptr %4, align 8
  %6 = call noundef zeroext i1 %5(ptr noundef nonnull align 8 dereferenceable(224) %0, i32 noundef 2, ptr noundef nonnull %2) #15
  ret i1 %6
}